(dp0
S'cookies'
p1
(dp2
S'wxloadtime'
p3
S'1493045512'
p4
sS'webwx_data_ticket'
p5
S'gSc/0+HFFs+pSFc6KcIOKETY'
p6
sS'wxuin'
p7
S'459635860'
p8
sS'login_frequency'
p9
S'2'
p10
sS'MM_WX_NOTIFY_STATE'
p11
S'1'
p12
sS'MM_WX_SOUND_STATE'
p13
g12
sS'webwx_auth_ticket'
p14
S'CIsBEIPz4vUOGoABVQWGcYEGEteb20JSuopNLwDUHerJjo8+1h5LSXpgtt+EGIzD1NjGY/ViEj8WvC+g+LBZQ+3Ssd+lLALdfnpHstR+rpUqtaxDTDQRDt/+1SNnwKwu3xuhe2dAQFdXTT9LfcOXOzytan2Co28hEj+VqNTEHuO0JReOhNk1+51XFgQ='
p15
sS'last_wxuin'
p16
S'459635860'
p17
sS'webwxuvid'
p18
S'718ca9aacc2c7dbe36d2ef4d85a0b42146559f529bdc4b4d05fb1db0e288fb525cffeaee7c75f817306bd7e1824e4cfa'
p19
sS'wxpluginkey'
p20
S'1493042763'
p21
sS'wxsid'
p22
S'RBOaIgR3ARJv8RxZ'
p23
sS'mm_lang'
p24
S'zh_CN'
p25
ssS'version'
p26
S'1.3.5'
p27
sS'storage'
p28
(dp29
S'userName'
p30
V@396c4a530543f814769b7214ff83e75661a1ac224b444942bd220648a8168117
p31
sS'lastInputUserName'
p32
NsS'memberList'
p33
ccopy_reg
_reconstructor
p34
(citchat.storage.templates
ContactList
p35
c__builtin__
list
p36
(lp37
g34
(citchat.storage.templates
User
p38
c__builtin__
dict
p39
(dp40
S'UserName'
p41
g31
sS'City'
p42
S''
p43
sS'DisplayName'
p44
g43
sS'UniFriend'
p45
I0
sS'OwnerUin'
p46
I0
sS'MemberList'
p47
g34
(g35
g36
(lp48
tp49
Rp50
I1
bsS'PYQuanPin'
p51
V
p52
sS'RemarkPYInitial'
p53
g52
sS'Uin'
p54
I459635860
sS'AppAccountFlag'
p55
I0
sS'VerifyFlag'
p56
I0
sS'Province'
p57
g43
sS'KeyWord'
p58
g43
sS'RemarkName'
p59
g52
sS'PYInitial'
p60
g52
sS'ChatRoomId'
p61
I0
sS'HideInputBarFlag'
p62
I0
sVHeadImgFlag
p63
I1
sS'EncryChatRoomId'
p64
g43
sS'AttrStatus'
p65
I0
sS'SnsFlag'
p66
I0
sS'MemberCount'
p67
I0
sVWebWxPluginSwitch
p68
I0
sS'Alias'
p69
g43
sS'Signature'
p70
g52
sS'ContactFlag'
p71
I0
sS'NickName'
p72
Vfeng
p73
sS'RemarkPYQuanPin'
p74
g52
sS'HeadImgUrl'
p75
V/cgi-bin/mmwebwx-bin/webwxgeticon?seq=991723357&username=@396c4a530543f814769b7214ff83e75661a1ac224b444942bd220648a8168117&skey=@crypt_13e8036c_21576db1d6dc174330074cf16dd03455
p76
sS'Sex'
p77
I0
sS'StarFriend'
p78
I0
sS'Statues'
p79
I0
stp80
Rp81
I1
bag34
(g38
g39
(dp82
VUserName
p83
V@d3c84f3d4bde8530f56a234763ac2071
p84
sVCity
p85
V\u4fdd\u5b9a
p86
sVSnsFlag
p87
I17
sVDisplayName
p88
g52
sVUniFriend
p89
I0
sVMemberCount
p90
I0
sVOwnerUin
p91
I0
sVMemberList
p92
g50
sVAlias
p93
g52
sVPYQuanPin
p94
Vfengshaomin
p95
sVSignature
p96
g52
sVRemarkPYInitial
p97
g52
sVContactFlag
p98
I3
sVUin
p99
I0
sVNickName
p100
V\u51af\u5c11\u654f
p101
sVAppAccountFlag
p102
I0
sVVerifyFlag
p103
I0
sVRemarkPYQuanPin
p104
g52
sVHeadImgUrl
p105
V/cgi-bin/mmwebwx-bin/webwxgeticon?seq=655392337&username=@d3c84f3d4bde8530f56a234763ac2071&skey=@crypt_13e8036c_21576db1d6dc174330074cf16dd03455
p106
sVKeyWord
p107
Vfen
p108
sVProvince
p109
V\u6cb3\u5317
p110
sVPYInitial
p111
VFSM
p112
sVRemarkName
p113
g52
sVIsOwner
p114
I0
sVSex
p115
I1
sVStarFriend
p116
I0
sVHideInputBarFlag
p117
I0
sVChatRoomId
p118
I0
sVEncryChatRoomId
p119
g52
sVAttrStatus
p120
I2147717347
sVStatues
p121
I0
stp122
Rp123
I1
bag34
(g38
g39
(dp124
VUserName
p125
V@697c19eea21c92da41cf6e6e50b503be
p126
sVCity
p127
g52
sVSnsFlag
p128
I49
sVDisplayName
p129
g52
sVUniFriend
p130
I0
sVMemberCount
p131
I0
sVOwnerUin
p132
I0
sVMemberList
p133
g50
sVAlias
p134
g52
sVPYQuanPin
p135
Vyujiazi
p136
sVSignature
p137
g52
sVRemarkPYInitial
p138
g52
sVContactFlag
p139
I1
sVUin
p140
I0
sVNickName
p141
V\u7389\u8304\u5b50
p142
sVAppAccountFlag
p143
I0
sVVerifyFlag
p144
I0
sVRemarkPYQuanPin
p145
g52
sVHeadImgUrl
p146
V/cgi-bin/mmwebwx-bin/webwxgeticon?seq=655393479&username=@697c19eea21c92da41cf6e6e50b503be&skey=@crypt_13e8036c_21576db1d6dc174330074cf16dd03455
p147
sVKeyWord
p148
Vkag
p149
sVProvince
p150
V\u5317\u4eac
p151
sVPYInitial
p152
VYJZ
p153
sVRemarkName
p154
g52
sVIsOwner
p155
I0
sVSex
p156
I2
sVStarFriend
p157
I0
sVHideInputBarFlag
p158
I0
sVChatRoomId
p159
I0
sVEncryChatRoomId
p160
g52
sVAttrStatus
p161
I234599
sVStatues
p162
I0
stp163
Rp164
I1
batp165
Rp166
I1
bsS'chatroomList'
p167
g34
(g35
g36
(lp168
tp169
Rp170
I1
bsS'nickName'
p171
g73
sS'mpList'
p172
g34
(g35
g36
(lp173
g34
(citchat.storage.templates
MassivePlatform
p174
g39
(dp175
VUserName
p176
V@99e92e57f8323524aee348c250847dae
p177
sVCity
p178
V\u6d77\u6dc0
p179
sVSnsFlag
p180
I0
sVDisplayName
p181
g52
sVUniFriend
p182
I0
sVMemberCount
p183
I0
sVOwnerUin
p184
I0
sVMemberList
p185
g50
sVAlias
p186
g52
sVPYQuanPin
p187
Vxiaobingshangyexiejuefanganpingtai
p188
sVSignature
p189
V\u5fae\u8f6f\u5c0f\u51b0\u5546\u4e1a\u89e3\u51b3\u65b9\u6848\u5e73\u53f0\u5b98\u65b9\u8ba2\u9605\u53f7
p190
sVRemarkPYInitial
p191
g52
sVContactFlag
p192
I3
sVUin
p193
I0
sVNickName
p194
V\u5c0f\u51b0\u5546\u4e1a\u89e3\u51b3\u65b9\u6848\u5e73\u53f0
p195
sVAppAccountFlag
p196
I0
sVVerifyFlag
p197
I24
sVRemarkPYQuanPin
p198
g52
sVHeadImgUrl
p199
V/cgi-bin/mmwebwx-bin/webwxgeticon?seq=655399406&username=@99e92e57f8323524aee348c250847dae&skey=@crypt_13e8036c_21576db1d6dc174330074cf16dd03455
p200
sVKeyWord
p201
Vgh_
p202
sVProvince
p203
V\u5317\u4eac
p204
sVPYInitial
p205
VXBSYXJFAPT
p206
sVRemarkName
p207
g52
sVIsOwner
p208
I0
sVSex
p209
I0
sVStarFriend
p210
I0
sVHideInputBarFlag
p211
I0
sVChatRoomId
p212
I0
sVEncryChatRoomId
p213
g52
sVAttrStatus
p214
I0
sVStatues
p215
I0
stp216
Rp217
I1
batp218
Rp219
I1
bssS'loginInfo'
p220
(dp221
S'SyncKey'
p222
(dp223
VCount
p224
I4
sVList
p225
(lp226
(dp227
VVal
p228
I655399405
sVKey
p229
I1
sa(dp230
VVal
p231
I655399482
sVKey
p232
I2
sa(dp233
VVal
p234
I655399406
sVKey
p235
I3
sa(dp236
VVal
p237
I1493042763
sVKey
p238
I1000
sassS'syncUrl'
p239
S'https://webpush.wx2.qq.com/cgi-bin/mmwebwx-bin'
p240
sS'skey'
p241
V@crypt_13e8036c_21576db1d6dc174330074cf16dd03455
p242
sS'wxuin'
p243
V459635860
p244
sS'synckey'
p245
S'1_655399405|2_655399482|3_655399406|1000_1493042763'
p246
sS'url'
p247
Vhttps://wx2.qq.com/cgi-bin/mmwebwx-bin
p248
sS'pass_ticket'
p249
VGVLg8Osoaw3i9c5aofqlUfk6GGRCixhoYsNT1B2nepxoxfwYrBvWVvfZTVnjpYTX
p250
sS'wxsid'
p251
VRBOaIgR3ARJv8RxZ
p252
sS'BaseRequest'
p253
(dp254
g54
g244
sS'Skey'
p255
g242
sS'DeviceID'
p256
g250
sS'Sid'
p257
g252
ssS'deviceid'
p258
S'e844835754595267'
p259
sS'fileUrl'
p260
S'https://file.wx2.qq.com/cgi-bin/mmwebwx-bin'
p261
sS'InviteStartCount'
p262
I40
sS'User'
p263
g34
(g38
g39
(dp264
g41
g31
sg42
g43
sg44
g43
sg45
I0
sg47
g50
sg51
g52
sg53
g52
sg77
I0
sg55
I0
sg56
I0
sg57
g43
sg58
g43
sg59
g52
sg60
g52
sg61
I0
sg62
I0
sg63
I1
sg64
g43
sg65
I0
sg68
I0
sg66
I0
sg67
I0
sg46
I0
sg69
g43
sg70
g52
sg71
I0
sg72
g73
sg74
g52
sg75
g76
sg54
I459635860
sg78
I0
sg79
I0
stp265
Rp266
I1
bss.