(dp0
S'cookies'
p1
(dp2
S'wxloadtime'
p3
S'1493054843'
p4
sS'webwx_data_ticket'
p5
S'gSdDpoloKOmJlOlokVAw3fgq'
p6
sS'wxuin'
p7
S'459635860'
p8
sS'login_frequency'
p9
S'2'
p10
sS'MM_WX_NOTIFY_STATE'
p11
S'1'
p12
sS'MM_WX_SOUND_STATE'
p13
g12
sS'webwx_auth_ticket'
p14
S'CIsBEIf2zt8KGoABzy3hUpvv1y9KMRCMmsMC2gDUHerJjo8+1h5LSXpgtt+EGIzD1NjGY/ViEj8WvC+g+LBZQ+3Ssd+lLALdfnpHstR+rpUqtaxDTDQRDt/+1SNnwKwu3xuhe2dAQFdXTT9LfcOXOzytan2Co28hEj+VqNTEHuO0JReOhNk1+51XFgQ='
p15
sS'last_wxuin'
p16
S'459635860'
p17
sS'webwxuvid'
p18
S'718ca9aacc2c7dbe36d2ef4d85a0b42146559f529bdc4b4d05fb1db0e288fb525cffeaee7c75f817306bd7e1824e4cfa'
p19
sS'wxpluginkey'
p20
S'1493051978'
p21
sS'wxsid'
p22
S'hlBmxuxZszVEWQ+O'
p23
sS'mm_lang'
p24
S'zh_CN'
p25
ssS'version'
p26
S'1.3.5'
p27
sS'storage'
p28
(dp29
S'userName'
p30
V@b79c8814252a662df29592d25a33385330350d03d35ef4e1edb528c0eead8065
p31
sS'lastInputUserName'
p32
NsS'memberList'
p33
ccopy_reg
_reconstructor
p34
(citchat.storage.templates
ContactList
p35
c__builtin__
list
p36
(lp37
g34
(citchat.storage.templates
User
p38
c__builtin__
dict
p39
(dp40
S'UserName'
p41
g31
sS'City'
p42
S''
p43
sS'DisplayName'
p44
g43
sS'UniFriend'
p45
I0
sS'OwnerUin'
p46
I0
sS'MemberList'
p47
g34
(g35
g36
(lp48
tp49
Rp50
I1
bsS'PYQuanPin'
p51
V
p52
sS'RemarkPYInitial'
p53
g52
sS'Uin'
p54
I459635860
sS'AppAccountFlag'
p55
I0
sS'VerifyFlag'
p56
I0
sS'Province'
p57
g43
sS'KeyWord'
p58
g43
sS'RemarkName'
p59
g52
sS'PYInitial'
p60
g52
sS'ChatRoomId'
p61
I0
sS'HideInputBarFlag'
p62
I0
sVHeadImgFlag
p63
I1
sS'EncryChatRoomId'
p64
g43
sS'AttrStatus'
p65
I0
sS'SnsFlag'
p66
I0
sS'MemberCount'
p67
I0
sVWebWxPluginSwitch
p68
I0
sS'Alias'
p69
g43
sS'Signature'
p70
g52
sS'ContactFlag'
p71
I0
sS'NickName'
p72
Vfeng
p73
sS'RemarkPYQuanPin'
p74
g52
sS'HeadImgUrl'
p75
V/cgi-bin/mmwebwx-bin/webwxgeticon?seq=1269067147&username=@b79c8814252a662df29592d25a33385330350d03d35ef4e1edb528c0eead8065&skey=@crypt_13e8036c_93e0477aaff476b3c6c6c4f1695cfbb7
p76
sS'Sex'
p77
I0
sS'StarFriend'
p78
I0
sS'Statues'
p79
I0
stp80
Rp81
I1
bag34
(g38
g39
(dp82
VUserName
p83
V@3ed11607ab0616ea86cc594c51437cca
p84
sVCity
p85
V\u4fdd\u5b9a
p86
sVSnsFlag
p87
I17
sVDisplayName
p88
g52
sVUniFriend
p89
I0
sVMemberCount
p90
I0
sVOwnerUin
p91
I0
sVMemberList
p92
g50
sVAlias
p93
g52
sVPYQuanPin
p94
Vfengshaomin
p95
sVSignature
p96
g52
sVRemarkPYInitial
p97
g52
sVContactFlag
p98
I3
sVUin
p99
I0
sVNickName
p100
V\u51af\u5c11\u654f
p101
sVAppAccountFlag
p102
I0
sVVerifyFlag
p103
I0
sVRemarkPYQuanPin
p104
g52
sVHeadImgUrl
p105
V/cgi-bin/mmwebwx-bin/webwxgeticon?seq=655392337&username=@3ed11607ab0616ea86cc594c51437cca&skey=@crypt_13e8036c_93e0477aaff476b3c6c6c4f1695cfbb7
p106
sVKeyWord
p107
Vfen
p108
sVProvince
p109
V\u6cb3\u5317
p110
sVPYInitial
p111
VFSM
p112
sVRemarkName
p113
g52
sVIsOwner
p114
I0
sVSex
p115
I1
sVStarFriend
p116
I0
sVHideInputBarFlag
p117
I0
sVChatRoomId
p118
I0
sVEncryChatRoomId
p119
g52
sVAttrStatus
p120
I2147717347
sVStatues
p121
I0
stp122
Rp123
I1
bag34
(g38
g39
(dp124
VUserName
p125
V@6a6fa17e729b50884b9b4edbbb314604
p126
sVCity
p127
g52
sVSnsFlag
p128
I49
sVDisplayName
p129
g52
sVUniFriend
p130
I0
sVMemberCount
p131
I0
sVOwnerUin
p132
I0
sVMemberList
p133
g50
sVAlias
p134
g52
sVPYQuanPin
p135
Vyujiazi
p136
sVSignature
p137
g52
sVRemarkPYInitial
p138
g52
sVContactFlag
p139
I1
sVUin
p140
I0
sVNickName
p141
V\u7389\u8304\u5b50
p142
sVAppAccountFlag
p143
I0
sVVerifyFlag
p144
I0
sVRemarkPYQuanPin
p145
g52
sVHeadImgUrl
p146
V/cgi-bin/mmwebwx-bin/webwxgeticon?seq=655393479&username=@6a6fa17e729b50884b9b4edbbb314604&skey=@crypt_13e8036c_93e0477aaff476b3c6c6c4f1695cfbb7
p147
sVKeyWord
p148
Vkag
p149
sVProvince
p150
V\u5317\u4eac
p151
sVPYInitial
p152
VYJZ
p153
sVRemarkName
p154
g52
sVIsOwner
p155
I0
sVSex
p156
I2
sVStarFriend
p157
I0
sVHideInputBarFlag
p158
I0
sVChatRoomId
p159
I0
sVEncryChatRoomId
p160
g52
sVAttrStatus
p161
I234599
sVStatues
p162
I0
stp163
Rp164
I1
batp165
Rp166
I1
bsS'chatroomList'
p167
g34
(g35
g36
(lp168
g34
(citchat.storage.templates
Chatroom
p169
g39
(dp170
VUserName
p171
V@@da3b48cec55cc6f428fc7e0bbf434d9fdcea38d79079492ed364aa60f2428ee0
p172
sVCity
p173
g52
sVDisplayName
p174
g52
sVUniFriend
p175
I0
sS'Self'
p176
g34
(g38
g39
(dp177
g41
g31
sg42
g43
sg44
g43
sg45
I0
sg46
I0
sg47
g34
(g35
g36
(lp178
tp179
Rp180
I1
bsg51
g52
sg53
g52
sg54
I459635860
sg55
I0
sg56
I0
sg57
g43
sg58
g43
sg59
g52
sg60
g52
sg61
I0
sg62
I0
sg63
I1
sg64
g43
sg65
I0
sg66
I0
sg67
I0
sg68
I0
sg69
g43
sg70
g52
sg71
I0
sg72
g73
sg74
g52
sg75
g76
sg77
I0
sg78
I0
sg79
I0
stp181
Rp182
I1
bsVMemberList
p183
g34
(g35
g36
(lp184
tp185
Rp186
I1
bsVPYQuanPin
p187
g52
sVRemarkPYInitial
p188
g52
sVSex
p189
I0
sVAppAccountFlag
p190
I0
sVVerifyFlag
p191
I0
sVProvince
p192
g52
sVKeyWord
p193
g52
sVRemarkName
p194
g52
sVPYInitial
p195
g52
sVIsOwner
p196
I0
sVChatRoomId
p197
I0
sVHideInputBarFlag
p198
I0
sVEncryChatRoomId
p199
g52
sVAttrStatus
p200
I0
sVSnsFlag
p201
I0
sVMemberCount
p202
I2
sVOwnerUin
p203
I0
sVAlias
p204
g52
sS'IsAdmin'
p205
NsVSignature
p206
g52
sVContactFlag
p207
I0
sVNickName
p208
V\u51af\u5c11\u654f,feng
p209
sVRemarkPYQuanPin
p210
g52
sVHeadImgUrl
p211
V/cgi-bin/mmwebwx-bin/webwxgetheadimg?seq=0&username=@@da3b48cec55cc6f428fc7e0bbf434d9fdcea38d79079492ed364aa60f2428ee0&skey=@crypt_13e8036c_93e0477aaff476b3c6c6c4f1695cfbb7
p212
sVUin
p213
I0
sVStarFriend
p214
I0
sVStatues
p215
I1
stp216
Rp217
I1
batp218
Rp219
I1
bsS'nickName'
p220
g73
sS'mpList'
p221
g34
(g35
g36
(lp222
g34
(citchat.storage.templates
MassivePlatform
p223
g39
(dp224
VUserName
p225
V@ae3eb3ebf83775a25a67766f270f762d
p226
sVCity
p227
V\u6d77\u6dc0
p228
sVSnsFlag
p229
I0
sVDisplayName
p230
g52
sVUniFriend
p231
I0
sVMemberCount
p232
I0
sVOwnerUin
p233
I0
sVMemberList
p234
g50
sVAlias
p235
g52
sVPYQuanPin
p236
Vxiaobingshangyexiejuefanganpingtai
p237
sVSignature
p238
V\u5fae\u8f6f\u5c0f\u51b0\u5546\u4e1a\u89e3\u51b3\u65b9\u6848\u5e73\u53f0\u5b98\u65b9\u8ba2\u9605\u53f7
p239
sVRemarkPYInitial
p240
g52
sVContactFlag
p241
I3
sVUin
p242
I0
sVNickName
p243
V\u5c0f\u51b0\u5546\u4e1a\u89e3\u51b3\u65b9\u6848\u5e73\u53f0
p244
sVAppAccountFlag
p245
I0
sVVerifyFlag
p246
I24
sVRemarkPYQuanPin
p247
g52
sVHeadImgUrl
p248
V/cgi-bin/mmwebwx-bin/webwxgeticon?seq=655399406&username=@ae3eb3ebf83775a25a67766f270f762d&skey=@crypt_13e8036c_93e0477aaff476b3c6c6c4f1695cfbb7
p249
sVKeyWord
p250
Vgh_
p251
sVProvince
p252
V\u5317\u4eac
p253
sVPYInitial
p254
VXBSYXJFAPT
p255
sVRemarkName
p256
g52
sVIsOwner
p257
I0
sVSex
p258
I0
sVStarFriend
p259
I0
sVHideInputBarFlag
p260
I0
sVChatRoomId
p261
I0
sVEncryChatRoomId
p262
g52
sVAttrStatus
p263
I0
sVStatues
p264
I0
stp265
Rp266
I1
batp267
Rp268
I1
bssS'loginInfo'
p269
(dp270
S'SyncKey'
p271
(dp272
VCount
p273
I4
sVList
p274
(lp275
(dp276
VVal
p277
I655399405
sVKey
p278
I1
sa(dp279
VVal
p280
I655399931
sVKey
p281
I2
sa(dp282
VVal
p283
I655399406
sVKey
p284
I3
sa(dp285
VVal
p286
I1493051978
sVKey
p287
I1000
sassS'syncUrl'
p288
S'https://webpush.wx2.qq.com/cgi-bin/mmwebwx-bin'
p289
sS'skey'
p290
V@crypt_13e8036c_93e0477aaff476b3c6c6c4f1695cfbb7
p291
sS'wxuin'
p292
V459635860
p293
sS'synckey'
p294
S'1_655399405|2_655399931|3_655399406|1000_1493051978'
p295
sS'url'
p296
Vhttps://wx2.qq.com/cgi-bin/mmwebwx-bin
p297
sS'pass_ticket'
p298
VIsBJTudNH99Ac%2FpLVroZSa0ev29bjfB3Cq97%2B6JzzfH0nOfR1mSxQMQSSkaPSUnu
p299
sS'wxsid'
p300
VhlBmxuxZszVEWQ+O
p301
sS'User'
p302
g34
(g38
g39
(dp303
g41
g31
sg42
g43
sg44
g43
sg45
I0
sg47
g50
sg51
g52
sg53
g52
sg77
I0
sg55
I0
sg56
I0
sg57
g43
sg58
g43
sg59
g52
sg60
g52
sg61
I0
sg62
I0
sg63
I1
sg64
g43
sg65
I0
sg68
I0
sg66
I0
sg67
I0
sg46
I0
sg69
g43
sg70
g52
sg71
I0
sg72
g73
sg74
g52
sg75
g76
sg54
I459635860
sg78
I0
sg79
I0
stp304
Rp305
I1
bsS'InviteStartCount'
p306
I40
sS'fileUrl'
p307
S'https://file.wx2.qq.com/cgi-bin/mmwebwx-bin'
p308
sS'BaseRequest'
p309
(dp310
g54
g293
sS'Skey'
p311
g291
sS'DeviceID'
p312
g299
sS'Sid'
p313
g301
ssS'deviceid'
p314
S'e179199656727311'
p315
ss.